target datalayout = "e-m:e-p270:32:32-p271:32:32-p272:64:64-i64:64-i128:128-f80:128-n8:16:32:64-S128"
target triple = "x86_64-pc-linux-gnu"

%struct.dump_arg = type { i64, i64, ptr, ptr, ptr, ptr, i64 }

; Function Attrs: nounwind sspstrong uwtable
define internal void @clear_dump_arg(ptr noundef %0) #0 {
  %2 = alloca ptr, align 8
  store ptr %0, ptr %2, align 8, !tbaa !39
  %3 = load ptr, ptr %2, align 8, !tbaa !39
  %4 = getelementptr inbounds nuw %struct.dump_arg, ptr %3, i32 0, i32 2
  %5 = load ptr, ptr %4, align 8, !tbaa !43
  %6 = icmp ne ptr %5, null
  br i1 %6, label %8, label %7

7:                                                ; preds = %1
  br label %42

8:                                                ; preds = %1
  %9 = load ptr, ptr %2, align 8, !tbaa !39
  %10 = getelementptr inbounds nuw %struct.dump_arg, ptr %9, i32 0, i32 2
  %11 = load ptr, ptr %10, align 8, !tbaa !43
  call void @rb_st_free_table(ptr noundef %11)
  %12 = load ptr, ptr %2, align 8, !tbaa !39
  %13 = getelementptr inbounds nuw %struct.dump_arg, ptr %12, i32 0, i32 2
  store ptr null, ptr %13, align 8, !tbaa !43
  %14 = load ptr, ptr %2, align 8, !tbaa !39
  %15 = getelementptr inbounds nuw %struct.dump_arg, ptr %14, i32 0, i32 3
  %16 = load ptr, ptr %15, align 8, !tbaa !44
  call void @rb_st_free_table(ptr noundef %16)
  %17 = load ptr, ptr %2, align 8, !tbaa !39
  %18 = getelementptr inbounds nuw %struct.dump_arg, ptr %17, i32 0, i32 3
  store ptr null, ptr %18, align 8, !tbaa !44
  %19 = load ptr, ptr %2, align 8, !tbaa !39
  %20 = getelementptr inbounds nuw %struct.dump_arg, ptr %19, i32 0, i32 6
  store i64 0, ptr %20, align 8, !tbaa !45
  %21 = load ptr, ptr %2, align 8, !tbaa !39
  %22 = getelementptr inbounds nuw %struct.dump_arg, ptr %21, i32 0, i32 4
  %23 = load ptr, ptr %22, align 8, !tbaa !46
  %24 = icmp ne ptr %23, null
  br i1 %24, label %25, label %31

25:                                               ; preds = %8
  %26 = load ptr, ptr %2, align 8, !tbaa !39
  %27 = getelementptr inbounds nuw %struct.dump_arg, ptr %26, i32 0, i32 4
  %28 = load ptr, ptr %27, align 8, !tbaa !46
  call void @rb_st_free_table(ptr noundef %28)
  %29 = load ptr, ptr %2, align 8, !tbaa !39
  %30 = getelementptr inbounds nuw %struct.dump_arg, ptr %29, i32 0, i32 4
  store ptr null, ptr %30, align 8, !tbaa !46
  br label %31

31:                                               ; preds = %25, %8
  %32 = load ptr, ptr %2, align 8, !tbaa !39
  %33 = getelementptr inbounds nuw %struct.dump_arg, ptr %32, i32 0, i32 5
  %34 = load ptr, ptr %33, align 8, !tbaa !47
  %35 = icmp ne ptr %34, null
  br i1 %35, label %36, label %42

36:                                               ; preds = %31
  %37 = load ptr, ptr %2, align 8, !tbaa !39
  %38 = getelementptr inbounds nuw %struct.dump_arg, ptr %37, i32 0, i32 5
  %39 = load ptr, ptr %38, align 8, !tbaa !47
  call void @rb_st_free_table(ptr noundef %39)
  %40 = load ptr, ptr %2, align 8, !tbaa !39
  %41 = getelementptr inbounds nuw %struct.dump_arg, ptr %40, i32 0, i32 5
  store ptr null, ptr %41, align 8, !tbaa !47
  br label %42

42:                                               ; preds = %7, %36, %31
  ret void
}

; Function Attrs: nounwind sspstrong uwtable
define internal void @free_dump_arg(ptr noundef %0) #0 {
  %2 = alloca ptr, align 8
  store ptr %0, ptr %2, align 8, !tbaa !11
  %3 = load ptr, ptr %2, align 8, !tbaa !11
  call void @clear_dump_arg(ptr noundef %3)
  ret void
}