; Function Attrs: nounwind sspstrong uwtable
define internal void @free_dump_arg(ptr noundef captures(none) %0) #0 {
  %2 = getelementptr inbounds nuw i8, ptr %0, i64 16
  %3 = load ptr, ptr %2, align 8, !tbaa !38
  %.not.i = icmp eq ptr %3, null
  br i1 %.not.i, label %clear_dump_arg.exit, label %4

4:                                                ; preds = %1
  tail call void @rb_st_free_table(ptr noundef nonnull %3) #22
  store ptr null, ptr %2, align 8, !tbaa !38
  %5 = getelementptr inbounds nuw i8, ptr %0, i64 24
  %6 = load ptr, ptr %5, align 8, !tbaa !39
  tail call void @rb_st_free_table(ptr noundef %6) #22
  store ptr null, ptr %5, align 8, !tbaa !39
  %7 = getelementptr inbounds nuw i8, ptr %0, i64 48
  store i64 0, ptr %7, align 8, !tbaa !43
  %8 = getelementptr inbounds nuw i8, ptr %0, i64 32
  %9 = load ptr, ptr %8, align 8, !tbaa !44
  %.not14.i = icmp eq ptr %9, null
  br i1 %.not14.i, label %11, label %10

10:                                               ; preds = %4
  tail call void @rb_st_free_table(ptr noundef nonnull %9) #22
  store ptr null, ptr %8, align 8, !tbaa !44
  br label %11

11:                                               ; preds = %10, %4
  %12 = getelementptr inbounds nuw i8, ptr %0, i64 40
  %13 = load ptr, ptr %12, align 8, !tbaa !45
  %.not15.i = icmp eq ptr %13, null
  br i1 %.not15.i, label %clear_dump_arg.exit, label %14

14:                                               ; preds = %11
  tail call void @rb_st_free_table(ptr noundef nonnull %13) #22
  store ptr null, ptr %12, align 8, !tbaa !45
  br label %clear_dump_arg.exit

clear_dump_arg.exit:                              ; preds = %1, %11, %14
  ret void
}